target datalayout = "e-m:e-p270:32:32-p271:32:32-p272:64:64-i64:64-i128:128-f80:128-n8:16:32:64-S128"
target triple = "x86_64-pc-linux-gnu"

%struct.expert_field = type { i32, i32 }
%struct._packet_info = type { ptr, ptr, i32, i32, %struct.nstime_t, %struct.nstime_t, %struct.nstime_t, i8, ptr, ptr, ptr, ptr, %struct._address, %struct._address, %struct._address, %struct._address, %struct._address, %struct._address, i32, ptr, i8, [3 x i8], %struct.anon, i32, i32, i32, i32, ptr, i8, ptr, ptr, i16, i16, i32, i32, i16, i32, i32, ptr, ptr, ptr, i8, i8, i16, i16, i16, i32, i16, i16, ptr, ptr, ptr, ptr, ptr, i32, i32 }
%struct.nstime_t = type { i64, i32 }
%struct._address = type { i32, i32, ptr, ptr }
%struct.anon = type { i8, [3 x i8] }
%struct._proto_node = type { ptr, ptr, ptr, ptr, ptr, ptr, ptr }
%struct.field_info = type { ptr, i32, i32, i32, i32, i32, i32, ptr, ptr, ptr, i32, i32 }

@hf_iso14443_short_frame = internal global i32 0, align 4
@hf_iso14443_atqa_rfu1 = internal global i32 0, align 4
@hf_iso14443_atqa_rfu2 = internal global i32 0, align 4
@hf_iso14443_propr_coding = internal global i32 0, align 4
@hf_iso14443_uid_bits = internal global i32 0, align 4
@hf_iso14443_uid_size = internal global i32 0, align 4
@hf_iso14443_bit_frame_anticoll = internal global i32 0, align 4
@ei_iso14443_uid_inval_size = internal global %struct.expert_field zeroinitializer, align 4
@iso14443_short_frame = internal constant [3 x { i32, [4 x i8], ptr }] [{ i32, [4 x i8], ptr } { i32 38, [4 x i8] zeroinitializer, ptr @.str.226 }, { i32, [4 x i8], ptr } { i32 82, [4 x i8] zeroinitializer, ptr @.str.227 }, { i32, [4 x i8], ptr } zeroinitializer], align 16
@.str.257 = private unnamed_addr constant [5 x i8] c": %s\00", align 1
@.str.258 = private unnamed_addr constant [5 x i8] c"ATQA\00", align 1
@.str.259 = private unnamed_addr constant [14 x i8] c": ATQA 0x%04x\00", align 1

; Function Attrs: inlinehint nounwind null_pointer_is_valid sspstrong uwtable
define internal void @proto_item_set_generated(ptr noundef %0) #3 {
  %2 = alloca ptr, align 8
  store ptr %0, ptr %2, align 8
  %3 = load ptr, ptr %2, align 8
  %4 = icmp ne ptr %3, null
  br i1 %4, label %5, label %24

5:                                                ; preds = %1
  br label %6

6:                                                ; preds = %5
  %7 = load ptr, ptr %2, align 8
  %8 = getelementptr inbounds nuw %struct._proto_node, ptr %7, i32 0, i32 5
  %9 = load ptr, ptr %8, align 8
  %10 = icmp ne ptr %9, null
  br i1 %10, label %11, label %22

11:                                               ; preds = %6
  %12 = load ptr, ptr %2, align 8
  %13 = getelementptr inbounds nuw %struct._proto_node, ptr %12, i32 0, i32 5
  %14 = load ptr, ptr %13, align 8
  %15 = getelementptr inbounds nuw %struct.field_info, ptr %14, i32 0, i32 6
  %16 = load i32, ptr %15, align 4
  %17 = or i32 %16, 2
  %18 = load ptr, ptr %2, align 8
  %19 = getelementptr inbounds nuw %struct._proto_node, ptr %18, i32 0, i32 5
  %20 = load ptr, ptr %19, align 8
  %21 = getelementptr inbounds nuw %struct.field_info, ptr %20, i32 0, i32 6
  store i32 %17, ptr %21, align 4
  br label %22

22:                                               ; preds = %11, %6
  br label %23

23:                                               ; preds = %22
  br label %24

24:                                               ; preds = %23, %1
  ret void
}

; Function Attrs: null_pointer_is_valid sspstrong uwtable
define internal i32 @dissect_iso14443_cmd_type_wupa(ptr noundef %0, ptr noundef %1, ptr noundef %2, ptr noundef %3) #0 {
  %5 = alloca ptr, align 8
  %6 = alloca ptr, align 8
  %7 = alloca ptr, align 8
  %8 = alloca ptr, align 8
  %9 = alloca ptr, align 8
  %10 = alloca i32, align 4
  %11 = alloca i8, align 1
  %12 = alloca i8, align 1
  %13 = alloca ptr, align 8
  %14 = alloca i16, align 2
  %15 = alloca ptr, align 8
  %16 = alloca ptr, align 8
  store ptr %0, ptr %5, align 8
  store ptr %1, ptr %6, align 8
  store ptr %2, ptr %7, align 8
  store ptr %3, ptr %8, align 8
  call void @llvm.lifetime.start.p0(i64 8, ptr %9) #5
  %17 = load ptr, ptr %7, align 8
  %18 = call ptr @proto_tree_get_parent(ptr noundef %17)
  store ptr %18, ptr %9, align 8
  call void @llvm.lifetime.start.p0(i64 4, ptr %10) #5
  store i32 0, ptr %10, align 4
  call void @llvm.lifetime.start.p0(i64 1, ptr %11) #5
  call void @llvm.lifetime.start.p0(i64 1, ptr %12) #5
  store i8 0, ptr %12, align 1
  %19 = load ptr, ptr %6, align 8
  %20 = getelementptr inbounds nuw %struct._packet_info, ptr %19, i32 0, i32 37
  %21 = load i32, ptr %20, align 4
  %22 = icmp eq i32 %21, 0
  br i1 %22, label %23, label %45

23:                                               ; preds = %4
  call void @llvm.lifetime.start.p0(i64 8, ptr %13) #5
  %24 = load ptr, ptr %5, align 8
  %25 = call zeroext i8 @tvb_get_uint8(ptr noundef %24, i32 noundef 0)
  %26 = zext i8 %25 to i32
  %27 = call ptr @try_val_to_str(i32 noundef %26, ptr noundef @iso14443_short_frame)
  store ptr %27, ptr %13, align 8
  %28 = load ptr, ptr %7, align 8
  %29 = load i32, ptr @hf_iso14443_short_frame, align 4
  %30 = load ptr, ptr %5, align 8
  %31 = load i32, ptr %10, align 4
  %32 = call ptr @proto_tree_add_item(ptr noundef %28, i32 noundef %29, ptr noundef %30, i32 noundef %31, i32 noundef 1, i32 noundef 0)
  %33 = load i32, ptr %10, align 4
  %34 = add i32 %33, 1
  store i32 %34, ptr %10, align 4
  %35 = load ptr, ptr %13, align 8
  %36 = icmp ne ptr %35, null
  br i1 %36, label %37, label %44

37:                                               ; preds = %23
  %38 = load ptr, ptr %9, align 8
  %39 = load ptr, ptr %13, align 8
  call void (ptr, ptr, ...) @proto_item_append_text(ptr noundef %38, ptr noundef @.str.257, ptr noundef %39)
  %40 = load ptr, ptr %6, align 8
  %41 = getelementptr inbounds nuw %struct._packet_info, ptr %40, i32 0, i32 1
  %42 = load ptr, ptr %41, align 8
  %43 = load ptr, ptr %13, align 8
  call void @col_set_str(ptr noundef %42, i32 noundef 25, ptr noundef %43)
  br label %44

44:                                               ; preds = %37, %23
  call void @llvm.lifetime.end.p0(i64 8, ptr %13) #5
  br label %128

45:                                               ; preds = %4
  %46 = load ptr, ptr %6, align 8
  %47 = getelementptr inbounds nuw %struct._packet_info, ptr %46, i32 0, i32 37
  %48 = load i32, ptr %47, align 4
  %49 = icmp eq i32 %48, 1
  br i1 %49, label %50, label %127

50:                                               ; preds = %45
  call void @llvm.lifetime.start.p0(i64 2, ptr %14) #5
  call void @llvm.lifetime.start.p0(i64 8, ptr %15) #5
  %51 = load ptr, ptr %5, align 8
  %52 = load i32, ptr %10, align 4
  %53 = call zeroext i16 @tvb_get_letohs(ptr noundef %51, i32 noundef %52)
  store i16 %53, ptr %14, align 2
  %54 = load ptr, ptr %6, align 8
  %55 = getelementptr inbounds nuw %struct._packet_info, ptr %54, i32 0, i32 1
  %56 = load ptr, ptr %55, align 8
  call void @col_set_str(ptr noundef %56, i32 noundef 25, ptr noundef @.str.258)
  %57 = load ptr, ptr %9, align 8
  %58 = load i16, ptr %14, align 2
  %59 = zext i16 %58 to i32
  call void (ptr, ptr, ...) @proto_item_append_text(ptr noundef %57, ptr noundef @.str.259, i32 noundef %59)
  %60 = load ptr, ptr %7, align 8
  %61 = load i32, ptr @hf_iso14443_atqa_rfu1, align 4
  %62 = load ptr, ptr %5, align 8
  %63 = load i32, ptr %10, align 4
  %64 = call ptr @proto_tree_add_item(ptr noundef %60, i32 noundef %61, ptr noundef %62, i32 noundef %63, i32 noundef 2, i32 noundef -2147483648)
  %65 = load ptr, ptr %7, align 8
  %66 = load i32, ptr @hf_iso14443_propr_coding, align 4
  %67 = load ptr, ptr %5, align 8
  %68 = load i32, ptr %10, align 4
  %69 = call ptr @proto_tree_add_item(ptr noundef %65, i32 noundef %66, ptr noundef %67, i32 noundef %68, i32 noundef 2, i32 noundef -2147483648)
  %70 = load i16, ptr %14, align 2
  %71 = zext i16 %70 to i32
  %72 = and i32 %71, 192
  %73 = ashr i32 %72, 6
  %74 = trunc i32 %73 to i8
  store i8 %74, ptr %11, align 1
  %75 = load i8, ptr %11, align 1
  %76 = zext i8 %75 to i32
  %77 = icmp eq i32 %76, 0
  br i1 %77, label %78, label %79

78:                                               ; preds = %50
  store i8 4, ptr %12, align 1
  br label %91

79:                                               ; preds = %50
  %80 = load i8, ptr %11, align 1
  %81 = zext i8 %80 to i32
  %82 = icmp eq i32 %81, 1
  br i1 %82, label %83, label %84

83:                                               ; preds = %79
  store i8 7, ptr %12, align 1
  br label %90

84:                                               ; preds = %79
  %85 = load i8, ptr %11, align 1
  %86 = zext i8 %85 to i32
  %87 = icmp eq i32 %86, 2
  br i1 %87, label %88, label %89

88:                                               ; preds = %84
  store i8 10, ptr %12, align 1
  br label %89

89:                                               ; preds = %88, %84
  br label %90

90:                                               ; preds = %89, %83
  br label %91

91:                                               ; preds = %90, %78
  %92 = load ptr, ptr %7, align 8
  %93 = load i32, ptr @hf_iso14443_uid_bits, align 4
  %94 = load ptr, ptr %5, align 8
  %95 = load i32, ptr %10, align 4
  %96 = call ptr @proto_tree_add_item(ptr noundef %92, i32 noundef %93, ptr noundef %94, i32 noundef %95, i32 noundef 2, i32 noundef -2147483648)
  store ptr %96, ptr %15, align 8
  %97 = load i8, ptr %12, align 1
  %98 = zext i8 %97 to i32
  %99 = icmp ne i32 %98, 0
  br i1 %99, label %100, label %110

100:                                              ; preds = %91
  call void @llvm.lifetime.start.p0(i64 8, ptr %16) #5
  %101 = load ptr, ptr %7, align 8
  %102 = load i32, ptr @hf_iso14443_uid_size, align 4
  %103 = load ptr, ptr %5, align 8
  %104 = load i32, ptr %10, align 4
  %105 = add i32 %104, 1
  %106 = load i8, ptr %12, align 1
  %107 = zext i8 %106 to i32
  %108 = call ptr @proto_tree_add_uint(ptr noundef %101, i32 noundef %102, ptr noundef %103, i32 noundef %105, i32 noundef 1, i32 noundef %107)
  store ptr %108, ptr %16, align 8
  %109 = load ptr, ptr %16, align 8
  call void @proto_item_set_generated(ptr noundef %109)
  call void @llvm.lifetime.end.p0(i64 8, ptr %16) #5
  br label %114

110:                                              ; preds = %91
  %111 = load ptr, ptr %6, align 8
  %112 = load ptr, ptr %15, align 8
  %113 = call ptr @expert_add_info(ptr noundef %111, ptr noundef %112, ptr noundef @ei_iso14443_uid_inval_size)
  br label %114

114:                                              ; preds = %110, %100
  %115 = load ptr, ptr %7, align 8
  %116 = load i32, ptr @hf_iso14443_atqa_rfu2, align 4
  %117 = load ptr, ptr %5, align 8
  %118 = load i32, ptr %10, align 4
  %119 = call ptr @proto_tree_add_item(ptr noundef %115, i32 noundef %116, ptr noundef %117, i32 noundef %118, i32 noundef 2, i32 noundef -2147483648)
  %120 = load ptr, ptr %7, align 8
  %121 = load i32, ptr @hf_iso14443_bit_frame_anticoll, align 4
  %122 = load ptr, ptr %5, align 8
  %123 = load i32, ptr %10, align 4
  %124 = call ptr @proto_tree_add_item(ptr noundef %120, i32 noundef %121, ptr noundef %122, i32 noundef %123, i32 noundef 2, i32 noundef -2147483648)
  %125 = load i32, ptr %10, align 4
  %126 = add i32 %125, 2
  store i32 %126, ptr %10, align 4
  call void @llvm.lifetime.end.p0(i64 8, ptr %15) #5
  call void @llvm.lifetime.end.p0(i64 2, ptr %14) #5
  br label %127

127:                                              ; preds = %114, %45
  br label %128

128:                                              ; preds = %127, %44
  %129 = load i32, ptr %10, align 4
  call void @llvm.lifetime.end.p0(i64 1, ptr %12) #5
  call void @llvm.lifetime.end.p0(i64 1, ptr %11) #5
  call void @llvm.lifetime.end.p0(i64 4, ptr %10) #5
  call void @llvm.lifetime.end.p0(i64 8, ptr %9) #5
  ret i32 %129
}