; Function Attrs: null_pointer_is_valid sspstrong uwtable
define internal range(i32 0, 3) i32 @dissect_iso14443_cmd_type_wupa(ptr noundef %0, ptr noundef %1, ptr noundef %2, ptr readnone captures(none) %3) #0 {
  %5 = tail call ptr @proto_tree_get_parent(ptr noundef %2)
  %6 = getelementptr inbounds nuw i8, ptr %1, i64 348
  %7 = load i32, ptr %6, align 4
  switch i32 %7, label %50 [
    i32 0, label %8
    i32 1, label %17
  ]

8:                                                ; preds = %4
  %9 = tail call zeroext i8 @tvb_get_uint8(ptr noundef %0, i32 noundef 0)
  %10 = zext i8 %9 to i32
  %11 = tail call ptr @try_val_to_str(i32 noundef %10, ptr noundef nonnull @iso14443_short_frame)
  %12 = load i32, ptr @hf_iso14443_short_frame, align 4
  %13 = tail call ptr @proto_tree_add_item(ptr noundef %2, i32 noundef %12, ptr noundef %0, i32 noundef 0, i32 noundef 1, i32 noundef 0)
  %.not51 = icmp eq ptr %11, null
  br i1 %.not51, label %50, label %14

14:                                               ; preds = %8
  tail call void (ptr, ptr, ...) @proto_item_append_text(ptr noundef %5, ptr noundef nonnull @.str.257, ptr noundef nonnull %11)
  %15 = getelementptr inbounds nuw i8, ptr %1, i64 8
  %16 = load ptr, ptr %15, align 8
  tail call void @col_set_str(ptr noundef %16, i32 noundef 25, ptr noundef nonnull %11)
  br label %50

17:                                               ; preds = %4
  %18 = tail call zeroext i16 @tvb_get_letohs(ptr noundef %0, i32 noundef 0)
  %19 = getelementptr inbounds nuw i8, ptr %1, i64 8
  %20 = load ptr, ptr %19, align 8
  tail call void @col_set_str(ptr noundef %20, i32 noundef 25, ptr noundef nonnull @.str.258)
  %21 = zext i16 %18 to i32
  tail call void (ptr, ptr, ...) @proto_item_append_text(ptr noundef %5, ptr noundef nonnull @.str.259, i32 noundef %21)
  %22 = load i32, ptr @hf_iso14443_atqa_rfu1, align 4
  %23 = tail call ptr @proto_tree_add_item(ptr noundef %2, i32 noundef %22, ptr noundef %0, i32 noundef 0, i32 noundef 2, i32 noundef -2147483648)
  %24 = load i32, ptr @hf_iso14443_propr_coding, align 4
  %25 = tail call ptr @proto_tree_add_item(ptr noundef %2, i32 noundef %24, ptr noundef %0, i32 noundef 0, i32 noundef 2, i32 noundef -2147483648)
  %26 = lshr i16 %18, 6
  %27 = and i16 %26, 3
  switch i16 %27, label %default.unreachable [
    i16 0, label %30
    i16 1, label %28
    i16 2, label %29
    i16 3, label %42
  ]

28:                                               ; preds = %17
  br label %30

29:                                               ; preds = %17
  br label %30

default.unreachable:                              ; preds = %17
  unreachable

30:                                               ; preds = %28, %29, %17
  %.046.ph = phi i32 [ 4, %17 ], [ 10, %29 ], [ 7, %28 ]
  %31 = load i32, ptr @hf_iso14443_uid_bits, align 4
  %32 = tail call ptr @proto_tree_add_item(ptr noundef %2, i32 noundef %31, ptr noundef %0, i32 noundef 0, i32 noundef 2, i32 noundef -2147483648)
  %33 = load i32, ptr @hf_iso14443_uid_size, align 4
  %34 = tail call ptr @proto_tree_add_uint(ptr noundef %2, i32 noundef %33, ptr noundef %0, i32 noundef 1, i32 noundef 1, i32 noundef %.046.ph)
  %.not.i = icmp eq ptr %34, null
  br i1 %.not.i, label %proto_item_set_generated.exit, label %35

35:                                               ; preds = %30
  %36 = getelementptr inbounds nuw i8, ptr %34, i64 40
  %37 = load ptr, ptr %36, align 8
  %.not5.i = icmp eq ptr %37, null
  br i1 %.not5.i, label %proto_item_set_generated.exit, label %38

38:                                               ; preds = %35
  %39 = getelementptr inbounds nuw i8, ptr %37, i64 28
  %40 = load i32, ptr %39, align 4
  %41 = or i32 %40, 2
  store i32 %41, ptr %39, align 4
  br label %proto_item_set_generated.exit

42:                                               ; preds = %17
  %43 = load i32, ptr @hf_iso14443_uid_bits, align 4
  %44 = tail call ptr @proto_tree_add_item(ptr noundef %2, i32 noundef %43, ptr noundef %0, i32 noundef 0, i32 noundef 2, i32 noundef -2147483648)
  %45 = tail call ptr @expert_add_info(ptr noundef %1, ptr noundef %44, ptr noundef nonnull @ei_iso14443_uid_inval_size)
  br label %proto_item_set_generated.exit

proto_item_set_generated.exit:                    ; preds = %38, %35, %30, %42
  %46 = load i32, ptr @hf_iso14443_atqa_rfu2, align 4
  %47 = tail call ptr @proto_tree_add_item(ptr noundef %2, i32 noundef %46, ptr noundef %0, i32 noundef 0, i32 noundef 2, i32 noundef -2147483648)
  %48 = load i32, ptr @hf_iso14443_bit_frame_anticoll, align 4
  %49 = tail call ptr @proto_tree_add_item(ptr noundef %2, i32 noundef %48, ptr noundef %0, i32 noundef 0, i32 noundef 2, i32 noundef -2147483648)
  br label %50

50:                                               ; preds = %4, %8, %14, %proto_item_set_generated.exit
  %.0 = phi i32 [ 2, %proto_item_set_generated.exit ], [ 1, %14 ], [ 1, %8 ], [ 0, %4 ]
  ret i32 %.0
}